; ModuleID = '804.c'
source_filename = "804.c"
target datalayout = "e-m:e-p270:32:32-p271:32:32-p272:64:64-i64:64-f80:128-n8:16:32:64-S128"
target triple = "x86_64-pc-linux-gnu"

@.str = private unnamed_addr constant [3 x i8] c"%d\00", align 1
@.str.1 = private unnamed_addr constant [4 x i8] c"%d\0A\00", align 1

; Function Attrs: noinline nounwind uwtable
define dso_local i32 @main() #0 {
  %1 = alloca i32, align 4
  %2 = alloca [17 x i32], align 16
  %3 = alloca i32, align 4
  %4 = alloca i32, align 4
  %5 = alloca i32, align 4
  %6 = alloca i32, align 4
  %7 = alloca i32, align 4
  store i32 0, i32* %1, align 4
  store i32 1, i32* %6, align 4
  br label %8

8:                                                ; preds = %88, %0
  %9 = load i32, i32* %6, align 4
  %10 = icmp ne i32 %9, 0
  br i1 %10, label %11, label %91

11:                                               ; preds = %8
  store i32 1, i32* %4, align 4
  br label %12

12:                                               ; preds = %35, %11
  %13 = load i32, i32* %4, align 4
  %14 = icmp slt i32 %13, 17
  br i1 %14, label %15, label %38

15:                                               ; preds = %12
  %16 = load i32, i32* %4, align 4
  %17 = sext i32 %16 to i64
  %18 = getelementptr inbounds [17 x i32], [17 x i32]* %2, i64 0, i64 %17
  %19 = call i32 (i8*, ...) @__isoc99_scanf(i8* getelementptr inbounds ([3 x i8], [3 x i8]* @.str, i64 0, i64 0), i32* %18)
  %20 = load i32, i32* %4, align 4
  %21 = sext i32 %20 to i64
  %22 = getelementptr inbounds [17 x i32], [17 x i32]* %2, i64 0, i64 %21
  %23 = load i32, i32* %22, align 4
  %24 = icmp eq i32 %23, -1
  br i1 %24, label %25, label %26

25:                                               ; preds = %15
  br label %92

26:                                               ; preds = %15
  %27 = load i32, i32* %4, align 4
  %28 = sext i32 %27 to i64
  %29 = getelementptr inbounds [17 x i32], [17 x i32]* %2, i64 0, i64 %28
  %30 = load i32, i32* %29, align 4
  %31 = icmp eq i32 %30, 0
  br i1 %31, label %32, label %34

32:                                               ; preds = %26
  %33 = load i32, i32* %4, align 4
  store i32 %33, i32* %3, align 4
  br label %38

34:                                               ; preds = %26
  br label %35

35:                                               ; preds = %34
  %36 = load i32, i32* %4, align 4
  %37 = add nsw i32 %36, 1
  store i32 %37, i32* %4, align 4
  br label %12

38:                                               ; preds = %32, %12
  %39 = load i32, i32* %6, align 4
  %40 = icmp ne i32 %39, 0
  br i1 %40, label %41, label %88

41:                                               ; preds = %38
  store i32 0, i32* %7, align 4
  store i32 1, i32* %4, align 4
  br label %42

42:                                               ; preds = %84, %41
  %43 = load i32, i32* %4, align 4
  %44 = load i32, i32* %3, align 4
  %45 = sub nsw i32 %44, 1
  %46 = icmp slt i32 %43, %45
  br i1 %46, label %47, label %87

47:                                               ; preds = %42
  %48 = load i32, i32* %4, align 4
  %49 = add nsw i32 %48, 1
  store i32 %49, i32* %5, align 4
  br label %50

50:                                               ; preds = %80, %47
  %51 = load i32, i32* %5, align 4
  %52 = load i32, i32* %3, align 4
  %53 = icmp slt i32 %51, %52
  br i1 %53, label %54, label %83

54:                                               ; preds = %50
  %55 = load i32, i32* %4, align 4
  %56 = sext i32 %55 to i64
  %57 = getelementptr inbounds [17 x i32], [17 x i32]* %2, i64 0, i64 %56
  %58 = load i32, i32* %57, align 4
  %59 = load i32, i32* %5, align 4
  %60 = sext i32 %59 to i64
  %61 = getelementptr inbounds [17 x i32], [17 x i32]* %2, i64 0, i64 %60
  %62 = load i32, i32* %61, align 4
  %63 = mul nsw i32 2, %62
  %64 = icmp eq i32 %58, %63
  br i1 %64, label %76, label %65

65:                                               ; preds = %54
  %66 = load i32, i32* %5, align 4
  %67 = sext i32 %66 to i64
  %68 = getelementptr inbounds [17 x i32], [17 x i32]* %2, i64 0, i64 %67
  %69 = load i32, i32* %68, align 4
  %70 = load i32, i32* %4, align 4
  %71 = sext i32 %70 to i64
  %72 = getelementptr inbounds [17 x i32], [17 x i32]* %2, i64 0, i64 %71
  %73 = load i32, i32* %72, align 4
  %74 = mul nsw i32 2, %73
  %75 = icmp eq i32 %69, %74
  br i1 %75, label %76, label %79

76:                                               ; preds = %65, %54
  %77 = load i32, i32* %7, align 4
  %78 = add nsw i32 %77, 1
  store i32 %78, i32* %7, align 4
  br label %79

79:                                               ; preds = %76, %65
  br label %80

80:                                               ; preds = %79
  %81 = load i32, i32* %5, align 4
  %82 = add nsw i32 %81, 1
  store i32 %82, i32* %5, align 4
  br label %50

83:                                               ; preds = %50
  br label %84

84:                                               ; preds = %83
  %85 = load i32, i32* %4, align 4
  %86 = add nsw i32 %85, 1
  store i32 %86, i32* %4, align 4
  br label %42

87:                                               ; preds = %42
  br label %88

88:                                               ; preds = %87, %38
  %89 = load i32, i32* %7, align 4
  %90 = call i32 (i8*, ...) @printf(i8* getelementptr inbounds ([4 x i8], [4 x i8]* @.str.1, i64 0, i64 0), i32 %89)
  br label %8

91:                                               ; preds = %8
  br label %92

92:                                               ; preds = %91, %25
  ret i32 0
}

declare dso_local i32 @__isoc99_scanf(i8*, ...) #1

declare dso_local i32 @printf(i8*, ...) #1


!llvm.module.flags = !{!0}
!llvm.ident = !{!1}

!0 = !{i32 1, !"wchar_size", i32 4}
!1 = !{!"clang version 10.0.0-4ubuntu1 "}
